#include <math.h>
#include <stdio.h>
#include <stdlib.h>
#include <string.h>

int main ()
{int n,k,i,j,a[1000],b[1000][1000];
int m;
m=0;
scanf("%d %d",&n,&k);
for(i=0;i<k;i++)
                {scanf("%d",&a[i]);
                }   
for(i=0;i<k;i++){
for(j=k;j>i;j--){
                 if((a[i]-a[j])==k)
                 {
                 printf("yes");
                 m=1;
                 return 0;
                 }
                 
                 }
                  }  
if (m==0)
{printf("no");}
    
return 0;
}
